; Function Attrs: mustprogress uwtable
define void @_ZN8QuantLib11BatesEngineC2ERKN5boost10shared_ptrINS_10BatesModelEEEdm(ptr noundef nonnull align 8 dereferenceable(400) %this, ptr nocapture noundef nonnull readonly align 8 dereferenceable(16) %model, double noundef %relTolerance, i64 noundef %maxEvaluations) unnamed_addr #6 align 2 personality ptr @__gxx_personality_v0 {
entry:
  %ref.tmp = alloca %"class.boost::shared_ptr.29", align 8
  %ref.tmp2 = alloca %"class.QuantLib::AnalyticHestonEngine::Integration", align 8
  call void @llvm.lifetime.start.p0(i64 16, ptr nonnull %ref.tmp) #25
  %0 = load ptr, ptr %model, align 8, !tbaa !39
  store ptr %0, ptr %ref.tmp, align 8, !tbaa !41
  %pn.i = getelementptr inbounds nuw i8, ptr %ref.tmp, i64 8
  %pn3.i = getelementptr inbounds nuw i8, ptr %model, i64 8
  %1 = load ptr, ptr %pn3.i, align 8, !tbaa !37
  store ptr %1, ptr %pn.i, align 8, !tbaa !37
  %cmp.not.i.i = icmp eq ptr %1, null
  br i1 %cmp.not.i.i, label %invoke.cont, label %if.then.i.i

if.then.i.i:                                      ; preds = %entry
  %use_count_.i.i.i = getelementptr inbounds nuw i8, ptr %1, i64 8
  %2 = atomicrmw add ptr %use_count_.i.i.i, i32 1 monotonic, align 4
  br label %invoke.cont

invoke.cont:                                      ; preds = %if.then.i.i, %entry
  call void @llvm.lifetime.start.p0(i64 40, ptr nonnull %ref.tmp2) #25
  invoke void @_ZN8QuantLib20AnalyticHestonEngine11Integration12gaussLobattoEddmb(ptr dead_on_unwind nonnull writable sret(%"class.QuantLib::AnalyticHestonEngine::Integration") align 8 %ref.tmp2, double noundef %relTolerance, double noundef 0x47EFFFFFE0000000, i64 noundef %maxEvaluations, i1 noundef zeroext false)
          to label %invoke.cont4 unwind label %lpad

invoke.cont4:                                     ; preds = %invoke.cont
  invoke void @_ZN8QuantLib20AnalyticHestonEngineC2ERKN5boost10shared_ptrINS_11HestonModelEEENS0_17ComplexLogFormulaERKNS0_11IntegrationEdd(ptr noundef nonnull align 8 dereferenceable(400) %this, ptr noundef nonnull align 8 dereferenceable(16) %ref.tmp, i32 noundef 0, ptr noundef nonnull align 8 dereferenceable(40) %ref.tmp2, double noundef 1.000000e-25, double noundef -5.000000e-01)
          to label %invoke.cont6 unwind label %lpad5

invoke.cont6:                                     ; preds = %invoke.cont4
  %pn.i.i = getelementptr inbounds nuw i8, ptr %ref.tmp2, i64 32
  %3 = load ptr, ptr %pn.i.i, align 8, !tbaa !37
  %cmp.not.i.i.i = icmp eq ptr %3, null
  br i1 %cmp.not.i.i.i, label %_ZN5boost10shared_ptrIN8QuantLib18GaussianQuadratureEED2Ev.exit.i, label %if.then.i.i.i

if.then.i.i.i:                                    ; preds = %invoke.cont6
  %use_count_.i.i.i.i = getelementptr inbounds nuw i8, ptr %3, i64 8
  %4 = atomicrmw sub ptr %use_count_.i.i.i.i, i32 1 acq_rel, align 4
  %cmp.i.i.i.i = icmp eq i32 %4, 1
  br i1 %cmp.i.i.i.i, label %if.then.i.i.i.i, label %_ZN5boost10shared_ptrIN8QuantLib18GaussianQuadratureEED2Ev.exit.i

if.then.i.i.i.i:                                  ; preds = %if.then.i.i.i
  %vtable.i.i.i.i = load ptr, ptr %3, align 8, !tbaa !35
  %vfn.i.i.i.i = getelementptr inbounds i8, ptr %vtable.i.i.i.i, i64 16
  %5 = load ptr, ptr %vfn.i.i.i.i, align 8
  invoke void %5(ptr noundef nonnull align 8 dereferenceable(16) %3)
          to label %.noexc.i.i.i unwind label %terminate.lpad.i.i.i

.noexc.i.i.i:                                     ; preds = %if.then.i.i.i.i
  %weak_count_.i.i.i.i.i = getelementptr inbounds nuw i8, ptr %3, i64 12
  %6 = atomicrmw sub ptr %weak_count_.i.i.i.i.i, i32 1 acq_rel, align 4
  %cmp.i.i.i.i.i = icmp eq i32 %6, 1
  br i1 %cmp.i.i.i.i.i, label %if.then.i.i.i.i.i, label %_ZN5boost10shared_ptrIN8QuantLib18GaussianQuadratureEED2Ev.exit.i

if.then.i.i.i.i.i:                                ; preds = %.noexc.i.i.i
  %vtable.i.i.i.i.i = load ptr, ptr %3, align 8, !tbaa !35
  %vfn.i.i.i.i.i = getelementptr inbounds i8, ptr %vtable.i.i.i.i.i, i64 24
  %7 = load ptr, ptr %vfn.i.i.i.i.i, align 8
  invoke void %7(ptr noundef nonnull align 8 dereferenceable(16) %3)
          to label %_ZN5boost10shared_ptrIN8QuantLib18GaussianQuadratureEED2Ev.exit.i unwind label %terminate.lpad.i.i.i

terminate.lpad.i.i.i:                             ; preds = %if.then.i.i.i.i.i, %if.then.i.i.i.i
  %8 = landingpad { ptr, i32 }
          catch ptr null
  %9 = extractvalue { ptr, i32 } %8, 0
  call void @__clang_call_terminate(ptr %9) #26
  unreachable

_ZN5boost10shared_ptrIN8QuantLib18GaussianQuadratureEED2Ev.exit.i: ; preds = %if.then.i.i.i.i.i, %.noexc.i.i.i, %if.then.i.i.i, %invoke.cont6
  %pn.i1.i = getelementptr inbounds nuw i8, ptr %ref.tmp2, i64 16
  %10 = load ptr, ptr %pn.i1.i, align 8, !tbaa !37
  %cmp.not.i.i2.i = icmp eq ptr %10, null
  br i1 %cmp.not.i.i2.i, label %_ZN8QuantLib20AnalyticHestonEngine11IntegrationD2Ev.exit, label %if.then.i.i3.i

if.then.i.i3.i:                                   ; preds = %_ZN5boost10shared_ptrIN8QuantLib18GaussianQuadratureEED2Ev.exit.i
  %use_count_.i.i.i4.i = getelementptr inbounds nuw i8, ptr %10, i64 8
  %11 = atomicrmw sub ptr %use_count_.i.i.i4.i, i32 1 acq_rel, align 4
  %cmp.i.i.i5.i = icmp eq i32 %11, 1
  br i1 %cmp.i.i.i5.i, label %if.then.i.i.i6.i, label %_ZN8QuantLib20AnalyticHestonEngine11IntegrationD2Ev.exit

if.then.i.i.i6.i:                                 ; preds = %if.then.i.i3.i
  %vtable.i.i.i7.i = load ptr, ptr %10, align 8, !tbaa !35
  %vfn.i.i.i8.i = getelementptr inbounds i8, ptr %vtable.i.i.i7.i, i64 16
  %12 = load ptr, ptr %vfn.i.i.i8.i, align 8
  invoke void %12(ptr noundef nonnull align 8 dereferenceable(16) %10)
          to label %.noexc.i.i10.i unwind label %terminate.lpad.i.i9.i

.noexc.i.i10.i:                                   ; preds = %if.then.i.i.i6.i
  %weak_count_.i.i.i.i11.i = getelementptr inbounds nuw i8, ptr %10, i64 12
  %13 = atomicrmw sub ptr %weak_count_.i.i.i.i11.i, i32 1 acq_rel, align 4
  %cmp.i.i.i.i12.i = icmp eq i32 %13, 1
  br i1 %cmp.i.i.i.i12.i, label %if.then.i.i.i.i13.i, label %_ZN8QuantLib20AnalyticHestonEngine11IntegrationD2Ev.exit

if.then.i.i.i.i13.i:                              ; preds = %.noexc.i.i10.i
  %vtable.i.i.i.i14.i = load ptr, ptr %10, align 8, !tbaa !35
  %vfn.i.i.i.i15.i = getelementptr inbounds i8, ptr %vtable.i.i.i.i14.i, i64 24
  %14 = load ptr, ptr %vfn.i.i.i.i15.i, align 8
  invoke void %14(ptr noundef nonnull align 8 dereferenceable(16) %10)
          to label %_ZN8QuantLib20AnalyticHestonEngine11IntegrationD2Ev.exit unwind label %terminate.lpad.i.i9.i

terminate.lpad.i.i9.i:                            ; preds = %if.then.i.i.i.i13.i, %if.then.i.i.i6.i
  %15 = landingpad { ptr, i32 }
          catch ptr null
  %16 = extractvalue { ptr, i32 } %15, 0
  call void @__clang_call_terminate(ptr %16) #26
  unreachable

_ZN8QuantLib20AnalyticHestonEngine11IntegrationD2Ev.exit: ; preds = %_ZN5boost10shared_ptrIN8QuantLib18GaussianQuadratureEED2Ev.exit.i, %if.then.i.i3.i, %.noexc.i.i10.i, %if.then.i.i.i.i13.i
  call void @llvm.lifetime.end.p0(i64 40, ptr nonnull %ref.tmp2) #25
  %17 = load ptr, ptr %pn.i, align 8, !tbaa !37
  %cmp.not.i.i3 = icmp eq ptr %17, null
  br i1 %cmp.not.i.i3, label %_ZN5boost10shared_ptrIN8QuantLib11HestonModelEED2Ev.exit, label %if.then.i.i4

if.then.i.i4:                                     ; preds = %_ZN8QuantLib20AnalyticHestonEngine11IntegrationD2Ev.exit
  %use_count_.i.i.i5 = getelementptr inbounds nuw i8, ptr %17, i64 8
  %18 = atomicrmw sub ptr %use_count_.i.i.i5, i32 1 acq_rel, align 4
  %cmp.i.i.i = icmp eq i32 %18, 1
  br i1 %cmp.i.i.i, label %if.then.i.i.i6, label %_ZN5boost10shared_ptrIN8QuantLib11HestonModelEED2Ev.exit

if.then.i.i.i6:                                   ; preds = %if.then.i.i4
  %vtable.i.i.i = load ptr, ptr %17, align 8, !tbaa !35
  %vfn.i.i.i = getelementptr inbounds i8, ptr %vtable.i.i.i, i64 16
  %19 = load ptr, ptr %vfn.i.i.i, align 8
  invoke void %19(ptr noundef nonnull align 8 dereferenceable(16) %17)
          to label %.noexc.i.i unwind label %terminate.lpad.i.i

.noexc.i.i:                                       ; preds = %if.then.i.i.i6
  %weak_count_.i.i.i.i = getelementptr inbounds nuw i8, ptr %17, i64 12
  %20 = atomicrmw sub ptr %weak_count_.i.i.i.i, i32 1 acq_rel, align 4
  %cmp.i.i.i.i7 = icmp eq i32 %20, 1
  br i1 %cmp.i.i.i.i7, label %if.then.i.i.i.i8, label %_ZN5boost10shared_ptrIN8QuantLib11HestonModelEED2Ev.exit

if.then.i.i.i.i8:                                 ; preds = %.noexc.i.i
  %vtable.i.i.i.i9 = load ptr, ptr %17, align 8, !tbaa !35
  %vfn.i.i.i.i10 = getelementptr inbounds i8, ptr %vtable.i.i.i.i9, i64 24
  %21 = load ptr, ptr %vfn.i.i.i.i10, align 8
  invoke void %21(ptr noundef nonnull align 8 dereferenceable(16) %17)
          to label %_ZN5boost10shared_ptrIN8QuantLib11HestonModelEED2Ev.exit unwind label %terminate.lpad.i.i

terminate.lpad.i.i:                               ; preds = %if.then.i.i.i.i8, %if.then.i.i.i6
  %22 = landingpad { ptr, i32 }
          catch ptr null
  %23 = extractvalue { ptr, i32 } %22, 0
  call void @__clang_call_terminate(ptr %23) #26
  unreachable

_ZN5boost10shared_ptrIN8QuantLib11HestonModelEED2Ev.exit: ; preds = %_ZN8QuantLib20AnalyticHestonEngine11IntegrationD2Ev.exit, %if.then.i.i4, %.noexc.i.i, %if.then.i.i.i.i8
  call void @llvm.lifetime.end.p0(i64 16, ptr nonnull %ref.tmp) #25
  store ptr getelementptr inbounds inrange(-16, 64) (i8, ptr @_ZTVN8QuantLib11BatesEngineE, i64 16), ptr %this, align 8, !tbaa !35
  %add.ptr = getelementptr inbounds i8, ptr %this, i64 56
  store ptr getelementptr inbounds inrange(-16, 32) (i8, ptr @_ZTVN8QuantLib11BatesEngineE, i64 96), ptr %add.ptr, align 8, !tbaa !35
  ret void

lpad:                                             ; preds = %invoke.cont
  %24 = landingpad { ptr, i32 }
          cleanup
  br label %ehcleanup

lpad5:                                            ; preds = %invoke.cont4
  %25 = landingpad { ptr, i32 }
          cleanup
  call void @_ZN8QuantLib20AnalyticHestonEngine11IntegrationD2Ev(ptr noundef nonnull align 8 dereferenceable(40) %ref.tmp2) #25
  br label %ehcleanup

ehcleanup:                                        ; preds = %lpad5, %lpad
  %.pn = phi { ptr, i32 } [ %25, %lpad5 ], [ %24, %lpad ]
  call void @llvm.lifetime.end.p0(i64 40, ptr nonnull %ref.tmp2) #25
  call void @_ZN5boost10shared_ptrIN8QuantLib11HestonModelEED2Ev(ptr noundef nonnull align 8 dereferenceable(16) %ref.tmp) #25
  call void @llvm.lifetime.end.p0(i64 16, ptr nonnull %ref.tmp) #25
  resume { ptr, i32 } %.pn
}